target datalayout = "e-m:e-p270:32:32-p271:32:32-p272:64:64-i64:64-i128:128-f80:128-n8:16:32:64-S128"
target triple = "x86_64-unknown-linux-gnu"

%class.btSoftRigidCollisionAlgorithm = type <{ %class.btCollisionAlgorithm, i8, [7 x i8] }>
%class.btCollisionAlgorithm = type { ptr, ptr }
%class.CProfileSample = type { i8 }
%class.btSoftBody = type { %class.btCollisionObject.base, [4 x i8], %class.btAlignedObjectArray, ptr, %"struct.btSoftBody::Config", %"struct.btSoftBody::SolverState", [4 x i8], %"struct.btSoftBody::Pose", ptr, ptr, %class.btAlignedObjectArray.16, %class.btAlignedObjectArray.20, %class.btAlignedObjectArray.24, %class.btAlignedObjectArray.28, %class.btAlignedObjectArray.32, %class.btAlignedObjectArray.36, %class.btAlignedObjectArray.40, %class.btAlignedObjectArray.44, %class.btAlignedObjectArray.44, %class.btAlignedObjectArray.48, %class.btAlignedObjectArray.52, %class.btAlignedObjectArray.56, %class.btAlignedObjectArray.60, %class.btAlignedObjectArray.64, %class.btAlignedObjectArray.68, %class.btAlignedObjectArray.64, %class.btAlignedObjectArray.72, %class.btAlignedObjectArray.76, %class.btAlignedObjectArray.80, float, [2 x %class.btVector3], i8, %struct.btDbvt, %struct.btDbvt, ptr, %struct.btDbvt, %class.btAlignedObjectArray.88, float, float, float, [4 x i8], %class.btAlignedObjectArray.8, float, float, i8, [7 x i8], %class.btAlignedObjectArray.8, %class.btAlignedObjectArray.92, %class.btAlignedObjectArray.96, %class.btAlignedObjectArray.12, i8, i8, [6 x i8], %class.btAlignedObjectArray.100, %class.btVector3, float, i8, [3 x i8], %class.btAlignedObjectArray.104 }
%class.btCollisionObject.base = type <{ ptr, %class.btTransform, %class.btTransform, %class.btVector3, %class.btVector3, %class.btVector3, i32, float, ptr, ptr, ptr, ptr, i32, i32, i32, i32, i32, float, float, float, float, float, float, float, i32, [4 x i8], ptr, i32, i32, i32, float, float, float, i32, [4 x i8], %class.btAlignedObjectArray, i32, %class.btVector3 }>
%class.btTransform = type { %class.btMatrix3x3, %class.btVector3 }
%class.btMatrix3x3 = type { [3 x %class.btVector3] }
%class.btAlignedObjectArray = type <{ %class.btAlignedAllocator, [3 x i8], i32, i32, [4 x i8], ptr, i8, [7 x i8] }>
%class.btAlignedAllocator = type { i8 }
%"struct.btSoftBody::Config" = type { i32, float, float, float, float, float, float, float, float, float, float, float, float, float, float, float, float, float, float, float, float, i32, i32, i32, i32, i32, %class.btAlignedObjectArray.0, %class.btAlignedObjectArray.4, %class.btAlignedObjectArray.4, float, float }
%class.btAlignedObjectArray.0 = type <{ %class.btAlignedAllocator.1, [3 x i8], i32, i32, [4 x i8], ptr, i8, [7 x i8] }>
%class.btAlignedAllocator.1 = type { i8 }
%class.btAlignedObjectArray.4 = type <{ %class.btAlignedAllocator.5, [3 x i8], i32, i32, [4 x i8], ptr, i8, [7 x i8] }>
%class.btAlignedAllocator.5 = type { i8 }
%"struct.btSoftBody::SolverState" = type { float, float, float, float, float }
%"struct.btSoftBody::Pose" = type { i8, i8, float, %class.btAlignedObjectArray.8, %class.btAlignedObjectArray.12, %class.btVector3, %class.btMatrix3x3, %class.btMatrix3x3, %class.btMatrix3x3 }
%class.btAlignedObjectArray.16 = type <{ %class.btAlignedAllocator.17, [3 x i8], i32, i32, [4 x i8], ptr, i8, [7 x i8] }>
%class.btAlignedAllocator.17 = type { i8 }
%class.btAlignedObjectArray.20 = type <{ %class.btAlignedAllocator.21, [3 x i8], i32, i32, [4 x i8], ptr, i8, [7 x i8] }>
%class.btAlignedAllocator.21 = type { i8 }
%class.btAlignedObjectArray.24 = type <{ %class.btAlignedAllocator.25, [3 x i8], i32, i32, [4 x i8], ptr, i8, [7 x i8] }>
%class.btAlignedAllocator.25 = type { i8 }
%class.btAlignedObjectArray.28 = type <{ %class.btAlignedAllocator.29, [3 x i8], i32, i32, [4 x i8], ptr, i8, [7 x i8] }>
%class.btAlignedAllocator.29 = type { i8 }
%class.btAlignedObjectArray.32 = type <{ %class.btAlignedAllocator.33, [3 x i8], i32, i32, [4 x i8], ptr, i8, [7 x i8] }>
%class.btAlignedAllocator.33 = type { i8 }
%class.btAlignedObjectArray.36 = type <{ %class.btAlignedAllocator.37, [3 x i8], i32, i32, [4 x i8], ptr, i8, [7 x i8] }>
%class.btAlignedAllocator.37 = type { i8 }
%class.btAlignedObjectArray.40 = type <{ %class.btAlignedAllocator.41, [3 x i8], i32, i32, [4 x i8], ptr, i8, [7 x i8] }>
%class.btAlignedAllocator.41 = type { i8 }
%class.btAlignedObjectArray.44 = type <{ %class.btAlignedAllocator.45, [3 x i8], i32, i32, [4 x i8], ptr, i8, [7 x i8] }>
%class.btAlignedAllocator.45 = type { i8 }
%class.btAlignedObjectArray.48 = type <{ %class.btAlignedAllocator.49, [3 x i8], i32, i32, [4 x i8], ptr, i8, [7 x i8] }>
%class.btAlignedAllocator.49 = type { i8 }
%class.btAlignedObjectArray.52 = type <{ %class.btAlignedAllocator.53, [3 x i8], i32, i32, [4 x i8], ptr, i8, [7 x i8] }>
%class.btAlignedAllocator.53 = type { i8 }
%class.btAlignedObjectArray.56 = type <{ %class.btAlignedAllocator.57, [3 x i8], i32, i32, [4 x i8], ptr, i8, [7 x i8] }>
%class.btAlignedAllocator.57 = type { i8 }
%class.btAlignedObjectArray.60 = type <{ %class.btAlignedAllocator.61, [3 x i8], i32, i32, [4 x i8], ptr, i8, [7 x i8] }>
%class.btAlignedAllocator.61 = type { i8 }
%class.btAlignedObjectArray.68 = type <{ %class.btAlignedAllocator.69, [3 x i8], i32, i32, [4 x i8], ptr, i8, [7 x i8] }>
%class.btAlignedAllocator.69 = type { i8 }
%class.btAlignedObjectArray.64 = type <{ %class.btAlignedAllocator.65, [3 x i8], i32, i32, [4 x i8], ptr, i8, [7 x i8] }>
%class.btAlignedAllocator.65 = type { i8 }
%class.btAlignedObjectArray.72 = type <{ %class.btAlignedAllocator.73, [3 x i8], i32, i32, [4 x i8], ptr, i8, [7 x i8] }>
%class.btAlignedAllocator.73 = type { i8 }
%class.btAlignedObjectArray.76 = type <{ %class.btAlignedAllocator.77, [3 x i8], i32, i32, [4 x i8], ptr, i8, [7 x i8] }>
%class.btAlignedAllocator.77 = type { i8 }
%class.btAlignedObjectArray.80 = type <{ %class.btAlignedAllocator.81, [3 x i8], i32, i32, [4 x i8], ptr, i8, [7 x i8] }>
%class.btAlignedAllocator.81 = type { i8 }
%struct.btDbvt = type { ptr, ptr, i32, i32, i32, [4 x i8], %class.btAlignedObjectArray.84 }
%class.btAlignedObjectArray.84 = type <{ %class.btAlignedAllocator.85, [3 x i8], i32, i32, [4 x i8], ptr, i8, [7 x i8] }>
%class.btAlignedAllocator.85 = type { i8 }
%class.btAlignedObjectArray.88 = type <{ %class.btAlignedAllocator.89, [3 x i8], i32, i32, [4 x i8], ptr, i8, [7 x i8] }>
%class.btAlignedAllocator.89 = type { i8 }
%class.btAlignedObjectArray.8 = type <{ %class.btAlignedAllocator.9, [3 x i8], i32, i32, [4 x i8], ptr, i8, [7 x i8] }>
%class.btAlignedAllocator.9 = type { i8 }
%class.btAlignedObjectArray.92 = type <{ %class.btAlignedAllocator.93, [3 x i8], i32, i32, [4 x i8], ptr, i8, [7 x i8] }>
%class.btAlignedAllocator.93 = type { i8 }
%class.btAlignedObjectArray.96 = type <{ %class.btAlignedAllocator.97, [3 x i8], i32, i32, [4 x i8], ptr, i8, [7 x i8] }>
%class.btAlignedAllocator.97 = type { i8 }
%class.btAlignedObjectArray.12 = type <{ %class.btAlignedAllocator.13, [3 x i8], i32, i32, [4 x i8], ptr, i8, [7 x i8] }>
%class.btAlignedAllocator.13 = type { i8 }
%class.btAlignedObjectArray.100 = type <{ %class.btAlignedAllocator.101, [3 x i8], i32, i32, [4 x i8], ptr, i8, [7 x i8] }>
%class.btAlignedAllocator.101 = type { i8 }
%class.btVector3 = type { [4 x float] }
%class.btAlignedObjectArray.104 = type <{ %class.btAlignedAllocator.105, [3 x i8], i32, i32, [4 x i8], ptr, i8, [7 x i8] }>
%class.btAlignedAllocator.105 = type { i8 }
%struct.btCollisionObjectWrapper = type { ptr, ptr, ptr, ptr, ptr, i32, i32 }

@.str = private unnamed_addr constant [48 x i8] c"btSoftRigidCollisionAlgorithm::processCollision\00", align 1

; Function Attrs: mustprogress nounwind uwtable
define linkonce_odr dso_local noundef ptr @_ZN10btSoftBody17getSoftBodySolverEv(ptr noundef nonnull align 8 dereferenceable(2064) %this) #1 comdat align 2 {
entry:
  %this.addr = alloca ptr, align 8
  store ptr %this, ptr %this.addr, align 8
  %this1 = load ptr, ptr %this.addr, align 8
  %m_softBodySolver = getelementptr inbounds %class.btSoftBody, ptr %this1, i32 0, i32 3
  %0 = load ptr, ptr %m_softBodySolver, align 8
  ret ptr %0
}

; Function Attrs: mustprogress nounwind uwtable
define linkonce_odr dso_local noundef i32 @_ZNK20btAlignedObjectArrayIPK17btCollisionObjectE4sizeEv(ptr noundef nonnull align 8 dereferenceable(25) %this) #1 comdat align 2 {
entry:
  %this.addr = alloca ptr, align 8
  store ptr %this, ptr %this.addr, align 8
  %this1 = load ptr, ptr %this.addr, align 8
  %m_size = getelementptr inbounds %class.btAlignedObjectArray, ptr %this1, i32 0, i32 2
  %0 = load i32, ptr %m_size, align 4
  ret i32 %0
}

; Function Attrs: mustprogress nounwind uwtable
define linkonce_odr dso_local noundef i32 @_ZNK20btAlignedObjectArrayIPK17btCollisionObjectE16findLinearSearchERKS2_(ptr noundef nonnull align 8 dereferenceable(25) %this, ptr noundef nonnull align 8 dereferenceable(8) %key) #1 comdat align 2 {
entry:
  %this.addr = alloca ptr, align 8
  %key.addr = alloca ptr, align 8
  %index = alloca i32, align 4
  %i = alloca i32, align 4
  store ptr %this, ptr %this.addr, align 8
  store ptr %key, ptr %key.addr, align 8
  %this1 = load ptr, ptr %this.addr, align 8
  %call = call noundef i32 @_ZNK20btAlignedObjectArrayIPK17btCollisionObjectE4sizeEv(ptr noundef nonnull align 8 dereferenceable(25) %this1)
  store i32 %call, ptr %index, align 4
  store i32 0, ptr %i, align 4
  br label %for.cond

for.cond:                                         ; preds = %for.inc, %entry
  %0 = load i32, ptr %i, align 4
  %call2 = call noundef i32 @_ZNK20btAlignedObjectArrayIPK17btCollisionObjectE4sizeEv(ptr noundef nonnull align 8 dereferenceable(25) %this1)
  %cmp = icmp slt i32 %0, %call2
  br i1 %cmp, label %for.body, label %for.end

for.body:                                         ; preds = %for.cond
  %m_data = getelementptr inbounds %class.btAlignedObjectArray, ptr %this1, i32 0, i32 5
  %1 = load ptr, ptr %m_data, align 8
  %2 = load i32, ptr %i, align 4
  %idxprom = sext i32 %2 to i64
  %arrayidx = getelementptr inbounds ptr, ptr %1, i64 %idxprom
  %3 = load ptr, ptr %arrayidx, align 8
  %4 = load ptr, ptr %key.addr, align 8
  %5 = load ptr, ptr %4, align 8
  %cmp3 = icmp eq ptr %3, %5
  br i1 %cmp3, label %if.then, label %if.end

if.then:                                          ; preds = %for.body
  %6 = load i32, ptr %i, align 4
  store i32 %6, ptr %index, align 4
  br label %for.end

if.end:                                           ; preds = %for.body
  br label %for.inc

for.inc:                                          ; preds = %if.end
  %7 = load i32, ptr %i, align 4
  %inc = add nsw i32 %7, 1
  store i32 %inc, ptr %i, align 4
  br label %for.cond, !llvm.loop !5

for.end:                                          ; preds = %if.then, %for.cond
  %8 = load i32, ptr %index, align 4
  ret i32 %8
}

; Function Attrs: mustprogress nounwind uwtable
define linkonce_odr dso_local noundef ptr @_ZNK24btCollisionObjectWrapper18getCollisionObjectEv(ptr noundef nonnull align 8 dereferenceable(48) %this) #1 comdat align 2 {
entry:
  %this.addr = alloca ptr, align 8
  store ptr %this, ptr %this.addr, align 8
  %this1 = load ptr, ptr %this.addr, align 8
  %m_collisionObject = getelementptr inbounds %struct.btCollisionObjectWrapper, ptr %this1, i32 0, i32 2
  %0 = load ptr, ptr %m_collisionObject, align 8
  ret ptr %0
}

; Function Attrs: mustprogress uwtable
define dso_local void @_ZN29btSoftRigidCollisionAlgorithm16processCollisionEPK24btCollisionObjectWrapperS2_RK16btDispatcherInfoP16btManifoldResult(ptr noundef nonnull align 8 dereferenceable(17) %this, ptr noundef %body0Wrap, ptr noundef %body1Wrap, ptr noundef nonnull align 8 dereferenceable(49) %dispatchInfo, ptr noundef %resultOut) unnamed_addr #2 align 2 personality ptr @__gxx_personality_v0 {
entry:
  %this.addr = alloca ptr, align 8
  %body0Wrap.addr = alloca ptr, align 8
  %body1Wrap.addr = alloca ptr, align 8
  %dispatchInfo.addr = alloca ptr, align 8
  %resultOut.addr = alloca ptr, align 8
  %__profile = alloca %class.CProfileSample, align 1
  %softBody = alloca ptr, align 8
  %exn.slot = alloca ptr, align 8
  %ehselector.slot = alloca i32, align 4
  %rigidCollisionObjectWrap = alloca ptr, align 8
  %ref.tmp = alloca ptr, align 8
  store ptr %this, ptr %this.addr, align 8
  store ptr %body0Wrap, ptr %body0Wrap.addr, align 8
  store ptr %body1Wrap, ptr %body1Wrap.addr, align 8
  store ptr %dispatchInfo, ptr %dispatchInfo.addr, align 8
  store ptr %resultOut, ptr %resultOut.addr, align 8
  %this1 = load ptr, ptr %this.addr, align 8
  call void @_ZN14CProfileSampleC1EPKc(ptr noundef nonnull align 1 dereferenceable(1) %__profile, ptr noundef @.str)
  %m_isSwapped = getelementptr inbounds %class.btSoftRigidCollisionAlgorithm, ptr %this1, i32 0, i32 1
  %0 = load i8, ptr %m_isSwapped, align 8
  %tobool = trunc i8 %0 to i1
  br i1 %tobool, label %cond.true, label %cond.false

cond.true:                                        ; preds = %entry
  %1 = load ptr, ptr %body1Wrap.addr, align 8
  %call = invoke noundef ptr @_ZNK24btCollisionObjectWrapper18getCollisionObjectEv(ptr noundef nonnull align 8 dereferenceable(48) %1)
          to label %invoke.cont unwind label %lpad

invoke.cont:                                      ; preds = %cond.true
  br label %cond.end

cond.false:                                       ; preds = %entry
  %2 = load ptr, ptr %body0Wrap.addr, align 8
  %call3 = invoke noundef ptr @_ZNK24btCollisionObjectWrapper18getCollisionObjectEv(ptr noundef nonnull align 8 dereferenceable(48) %2)
          to label %invoke.cont2 unwind label %lpad

invoke.cont2:                                     ; preds = %cond.false
  br label %cond.end

cond.end:                                         ; preds = %invoke.cont2, %invoke.cont
  %cond = phi ptr [ %call, %invoke.cont ], [ %call3, %invoke.cont2 ]
  store ptr %cond, ptr %softBody, align 8
  %m_isSwapped4 = getelementptr inbounds %class.btSoftRigidCollisionAlgorithm, ptr %this1, i32 0, i32 1
  %3 = load i8, ptr %m_isSwapped4, align 8
  %tobool5 = trunc i8 %3 to i1
  br i1 %tobool5, label %cond.true6, label %cond.false7

cond.true6:                                       ; preds = %cond.end
  %4 = load ptr, ptr %body0Wrap.addr, align 8
  br label %cond.end8

cond.false7:                                      ; preds = %cond.end
  %5 = load ptr, ptr %body1Wrap.addr, align 8
  br label %cond.end8

cond.end8:                                        ; preds = %cond.false7, %cond.true6
  %cond9 = phi ptr [ %4, %cond.true6 ], [ %5, %cond.false7 ]
  store ptr %cond9, ptr %rigidCollisionObjectWrap, align 8
  %6 = load ptr, ptr %softBody, align 8
  %m_collisionDisabledObjects = getelementptr inbounds %class.btSoftBody, ptr %6, i32 0, i32 2
  %7 = load ptr, ptr %rigidCollisionObjectWrap, align 8
  %call11 = invoke noundef ptr @_ZNK24btCollisionObjectWrapper18getCollisionObjectEv(ptr noundef nonnull align 8 dereferenceable(48) %7)
          to label %invoke.cont10 unwind label %lpad

invoke.cont10:                                    ; preds = %cond.end8
  store ptr %call11, ptr %ref.tmp, align 8
  %call13 = invoke noundef i32 @_ZNK20btAlignedObjectArrayIPK17btCollisionObjectE16findLinearSearchERKS2_(ptr noundef nonnull align 8 dereferenceable(25) %m_collisionDisabledObjects, ptr noundef nonnull align 8 dereferenceable(8) %ref.tmp)
          to label %invoke.cont12 unwind label %lpad

invoke.cont12:                                    ; preds = %invoke.cont10
  %8 = load ptr, ptr %softBody, align 8
  %m_collisionDisabledObjects14 = getelementptr inbounds %class.btSoftBody, ptr %8, i32 0, i32 2
  %call16 = invoke noundef i32 @_ZNK20btAlignedObjectArrayIPK17btCollisionObjectE4sizeEv(ptr noundef nonnull align 8 dereferenceable(25) %m_collisionDisabledObjects14)
          to label %invoke.cont15 unwind label %lpad

invoke.cont15:                                    ; preds = %invoke.cont12
  %cmp = icmp eq i32 %call13, %call16
  br i1 %cmp, label %if.then, label %if.end

if.then:                                          ; preds = %invoke.cont15
  %9 = load ptr, ptr %softBody, align 8
  %call18 = invoke noundef ptr @_ZN10btSoftBody17getSoftBodySolverEv(ptr noundef nonnull align 8 dereferenceable(2064) %9)
          to label %invoke.cont17 unwind label %lpad

invoke.cont17:                                    ; preds = %if.then
  %10 = load ptr, ptr %softBody, align 8
  %11 = load ptr, ptr %rigidCollisionObjectWrap, align 8
  %vtable = load ptr, ptr %call18, align 8
  %vfn = getelementptr inbounds ptr, ptr %vtable, i64 9
  %12 = load ptr, ptr %vfn, align 8
  invoke void %12(ptr noundef nonnull align 8 dereferenceable(20) %call18, ptr noundef %10, ptr noundef %11)
          to label %invoke.cont19 unwind label %lpad

invoke.cont19:                                    ; preds = %invoke.cont17
  br label %if.end

lpad:                                             ; preds = %invoke.cont17, %if.then, %invoke.cont12, %invoke.cont10, %cond.end8, %cond.false, %cond.true
  %13 = landingpad { ptr, i32 }
          cleanup
  %14 = extractvalue { ptr, i32 } %13, 0
  store ptr %14, ptr %exn.slot, align 8
  %15 = extractvalue { ptr, i32 } %13, 1
  store i32 %15, ptr %ehselector.slot, align 4
  call void @_ZN14CProfileSampleD1Ev(ptr noundef nonnull align 1 dereferenceable(1) %__profile) #8
  br label %eh.resume

if.end:                                           ; preds = %invoke.cont19, %invoke.cont15
  call void @_ZN14CProfileSampleD1Ev(ptr noundef nonnull align 1 dereferenceable(1) %__profile) #8
  ret void

eh.resume:                                        ; preds = %lpad
  %exn = load ptr, ptr %exn.slot, align 8
  %sel = load i32, ptr %ehselector.slot, align 4
  %lpad.val = insertvalue { ptr, i32 } poison, ptr %exn, 0
  %lpad.val20 = insertvalue { ptr, i32 } %lpad.val, i32 %sel, 1
  resume { ptr, i32 } %lpad.val20
}